target datalayout = "e-m:e-p270:32:32-p271:32:32-p272:64:64-i64:64-i128:128-f80:128-n8:16:32:64-S128"
target triple = "x86_64-pc-linux-gnu"

%struct.ipmi_netfn_handler = type { ptr, ptr, i32, ptr, ptr, i32 }
%struct.ipmi_cmd_t = type { i32, ptr, ptr, ptr, ptr, ptr, i32 }

@ipmi_getcmd.ipmi_cmd_unknown = internal constant { i32, [4 x i8], ptr, ptr, ptr, ptr, ptr, i32, [4 x i8] } { i32 0, [4 x i8] zeroinitializer, ptr @ipmi_notimpl, ptr @ipmi_notimpl, ptr null, ptr null, ptr @.str.11, i32 0, [4 x i8] zeroinitializer }, align 8

; Function Attrs: nounwind null_pointer_is_valid sspstrong uwtable
define hidden ptr @ipmi_getcmd(ptr noundef %0, i32 noundef %1) #4 {
  %3 = alloca ptr, align 8
  %4 = alloca ptr, align 8
  %5 = alloca i32, align 4
  %6 = alloca ptr, align 8
  %7 = alloca i64, align 8
  %8 = alloca i64, align 8
  %9 = alloca i32, align 4
  store ptr %0, ptr %4, align 8
  store i32 %1, ptr %5, align 4
  call void @llvm.lifetime.start.p0(i64 8, ptr %6) #10
  call void @llvm.lifetime.start.p0(i64 8, ptr %7) #10
  call void @llvm.lifetime.start.p0(i64 8, ptr %8) #10
  %10 = load ptr, ptr %4, align 8
  %11 = icmp ne ptr %10, null
  br i1 %11, label %12, label %39

12:                                               ; preds = %2
  %13 = load ptr, ptr %4, align 8
  %14 = getelementptr inbounds nuw %struct.ipmi_netfn_handler, ptr %13, i32 0, i32 5
  %15 = load i32, ptr %14, align 8
  %16 = zext i32 %15 to i64
  store i64 %16, ptr %8, align 8
  %17 = load ptr, ptr %4, align 8
  %18 = getelementptr inbounds nuw %struct.ipmi_netfn_handler, ptr %17, i32 0, i32 4
  %19 = load ptr, ptr %18, align 8
  store ptr %19, ptr %6, align 8
  store i64 0, ptr %7, align 8
  br label %20

20:                                               ; preds = %33, %12
  %21 = load i64, ptr %7, align 8
  %22 = load i64, ptr %8, align 8
  %23 = icmp ult i64 %21, %22
  br i1 %23, label %24, label %38

24:                                               ; preds = %20
  %25 = load ptr, ptr %6, align 8
  %26 = getelementptr inbounds nuw %struct.ipmi_cmd_t, ptr %25, i32 0, i32 0
  %27 = load i32, ptr %26, align 8
  %28 = load i32, ptr %5, align 4
  %29 = icmp eq i32 %27, %28
  br i1 %29, label %30, label %32

30:                                               ; preds = %24
  %31 = load ptr, ptr %6, align 8
  store ptr %31, ptr %3, align 8
  store i32 1, ptr %9, align 4
  br label %40

32:                                               ; preds = %24
  br label %33

33:                                               ; preds = %32
  %34 = load i64, ptr %7, align 8
  %35 = add i64 %34, 1
  store i64 %35, ptr %7, align 8
  %36 = load ptr, ptr %6, align 8
  %37 = getelementptr %struct.ipmi_cmd_t, ptr %36, i32 1
  store ptr %37, ptr %6, align 8
  br label %20, !llvm.loop !11

38:                                               ; preds = %20
  br label %39

39:                                               ; preds = %38, %2
  store ptr @ipmi_getcmd.ipmi_cmd_unknown, ptr %3, align 8
  store i32 1, ptr %9, align 4
  br label %40

40:                                               ; preds = %39, %30
  call void @llvm.lifetime.end.p0(i64 8, ptr %8) #10
  call void @llvm.lifetime.end.p0(i64 8, ptr %7) #10
  call void @llvm.lifetime.end.p0(i64 8, ptr %6) #10
  %41 = load ptr, ptr %3, align 8
  ret ptr %41
}