; Function Attrs: nofree norecurse nosync nounwind null_pointer_is_valid sspstrong memory(read, inaccessiblemem: none) uwtable
define hidden noundef ptr @ipmi_getcmd(ptr noundef readonly captures(address_is_null) %0, i32 noundef %1) local_unnamed_addr #6 {
  %.not = icmp eq ptr %0, null
  br i1 %.not, label %.loopexit, label %3

3:                                                ; preds = %2
  %4 = getelementptr inbounds nuw i8, ptr %0, i64 40
  %5 = load i32, ptr %4, align 8
  %6 = zext i32 %5 to i64
  %.not17 = icmp eq i32 %5, 0
  br i1 %.not17, label %.loopexit, label %.lr.ph.preheader

.lr.ph.preheader:                                 ; preds = %3
  %7 = getelementptr inbounds nuw i8, ptr %0, i64 32
  %8 = load ptr, ptr %7, align 8
  br label %.lr.ph

.lr.ph:                                           ; preds = %.lr.ph.preheader, %11
  %.01014 = phi i64 [ %12, %11 ], [ 0, %.lr.ph.preheader ]
  %.01113 = phi ptr [ %13, %11 ], [ %8, %.lr.ph.preheader ]
  %9 = load i32, ptr %.01113, align 8
  %10 = icmp eq i32 %9, %1
  br i1 %10, label %.loopexit, label %11

11:                                               ; preds = %.lr.ph
  %12 = add nuw nsw i64 %.01014, 1
  %13 = getelementptr i8, ptr %.01113, i64 56
  %exitcond.not = icmp eq i64 %12, %6
  br i1 %exitcond.not, label %.loopexit, label %.lr.ph, !llvm.loop !10

.loopexit:                                        ; preds = %.lr.ph, %11, %3, %2
  %.0 = phi ptr [ @ipmi_getcmd.ipmi_cmd_unknown, %2 ], [ @ipmi_getcmd.ipmi_cmd_unknown, %3 ], [ %.01113, %.lr.ph ], [ @ipmi_getcmd.ipmi_cmd_unknown, %11 ]
  ret ptr %.0
}